Certificate:
    Data:
        Version: 3 (0x2)
        Serial Number: 1 (0x1)
        Signature Algorithm: md5WithRSAEncryption
        Issuer: C=US, ST=NY, L=New York, O=Example, LLC, CN=Example Company/emailAddress=test@example.com
        Validity
            Not Before: Jan 21 16:19:30 2016 GMT
            Not After : Jan 20 16:19:30 2017 GMT
        Subject: C=BE, ST=Li\xC5\xA0ge, O=Dept. Informatique(clients), OU=HEPL, CN=Flohic Erwan
        Subject Public Key Info:
            Public Key Algorithm: dsaEncryption
            DSA Public Key:
                pub: 
                    00:da:83:9d:8a:72:d5:14:8a:d8:fe:0c:94:7e:92:
                    7b:b5:70:8e:c4:b3:d0:5b:b7:fe:32:ac:43:21:0c:
                    ec:63:3e:0c:c8:47:7d:28:e5:ca:00:6f:f9:b1:8d:
                    5c:a9:e1:bd:39:78:02:ff:65:3a:27:68:4b:b1:44:
                    ad:4e:78:44:4b:19:fb:a7:3d:a8:8c:b2:24:74:6e:
                    45:d0:f6:c8:75:a0:0a:38:22:1e:1f:b0:ca:78:2e:
                    03:09:99:7a:99:5e:25:6a:fe:e9:ef:d7:f1:b0:48:
                    56:6e:a7:e7:5d:b1:fc:56:1d:18:b7:c5:4d:ad:78:
                    ef:6f:32:e8:35:35:90:5b:f9
                P:   
                    00:fd:7f:53:81:1d:75:12:29:52:df:4a:9c:2e:ec:
                    e4:e7:f6:11:b7:52:3c:ef:44:00:c3:1e:3f:80:b6:
                    51:26:69:45:5d:40:22:51:fb:59:3d:8d:58:fa:bf:
                    c5:f5:ba:30:f6:cb:9b:55:6c:d7:81:3b:80:1d:34:
                    6f:f2:66:60:b7:6b:99:50:a5:a4:9f:9f:e8:04:7b:
                    10:22:c2:4f:bb:a9:d7:fe:b7:c6:1b:f8:3b:57:e7:
                    c6:a8:a6:15:0f:04:fb:83:f6:d3:c5:1e:c3:02:35:
                    54:13:5a:16:91:32:f6:75:f3:ae:2b:61:d7:2a:ef:
                    f2:22:03:19:9d:d1:48:01:c7
                Q:   
                    00:97:60:50:8f:15:23:0b:cc:b2:92:b9:82:a2:eb:
                    84:0b:f0:58:1c:f5
                G:   
                    00:f7:e1:a0:85:d6:9b:3d:de:cb:bc:ab:5c:36:b8:
                    57:b9:79:94:af:bb:fa:3a:ea:82:f9:57:4c:0b:3d:
                    07:82:67:51:59:57:8e:ba:d4:59:4f:e6:71:07:10:
                    81:80:b4:49:16:71:23:e8:4c:28:16:13:b7:cf:09:
                    32:8c:c8:a6:e1:3c:16:7a:8b:54:7c:8d:28:e0:a3:
                    ae:1e:2b:b3:a6:75:91:6e:a3:7f:0b:fa:21:35:62:
                    f1:fb:62:7a:01:24:3b:cc:a4:f1:be:a8:51:90:89:
                    a8:83:df:e1:5a:e5:9f:06:92:8b:66:5e:80:7b:55:
                    25:64:01:4c:3b:fe:cf:49:2a
        X509v3 extensions:
            X509v3 Basic Constraints: 
                CA:FALSE
            Netscape Comment: 
                OpenSSL Generated Certificate
            X509v3 Subject Key Identifier: 
                EC:9B:45:9A:E9:22:15:78:BF:F7:A2:CD:40:05:14:67:B2:79:31:0B
            X509v3 Authority Key Identifier: 
                keyid:FA:70:5A:40:4E:96:0C:9F:5F:BE:C9:4D:49:BB:28:FC:87:B4:67:99
                DirName:/C=US/ST=NY/L=New York/O=Example, LLC/CN=Example Company/emailAddress=test@example.com
                serial:BE:7B:F8:17:CA:4A:3E:3E

    Signature Algorithm: md5WithRSAEncryption
        27:5e:bd:f3:0d:44:be:39:71:66:25:0a:37:a2:26:80:90:ed:
        53:a4:83:6a:36:23:66:8e:b9:75:13:9e:e7:11:7b:02:13:5d:
        0c:5f:62:1c:66:79:ac:83:c8:9b:4d:d3:b7:3d:47:ff:be:54:
        fb:91:1b:7c:55:7b:8f:c2:a3:ea:c1:bc:da:3e:dc:d4:4c:75:
        82:03:81:66:5a:78:c1:b8:b6:63:37:8f:49:d1:64:8e:68:61:
        bc:d8:02:8b:e6:4d:4a:f7:22:86:cb:44:e9:49:90:f0:b4:ac:
        ef:cc:7d:4a:88:3e:c1:0d:98:70:a1:70:5b:29:71:ef:42:ae:
        60:10
-----BEGIN CERTIFICATE-----
MIIEjTCCA/agAwIBAgIBATANBgkqhkiG9w0BAQQFADB/MQswCQYDVQQGEwJVUzEL
MAkGA1UECAwCTlkxETAPBgNVBAcMCE5ldyBZb3JrMRUwEwYDVQQKDAxFeGFtcGxl
LCBMTEMxGDAWBgNVBAMMD0V4YW1wbGUgQ29tcGFueTEfMB0GCSqGSIb3DQEJARYQ
dGVzdEBleGFtcGxlLmNvbTAeFw0xNjAxMjExNjE5MzBaFw0xNzAxMjAxNjE5MzBa
MGoxCzAJBgNVBAYTAkJFMQ8wDQYDVQQIDAZMacWgZ2UxJDAiBgNVBAoTG0RlcHQu
IEluZm9ybWF0aXF1ZShjbGllbnRzKTENMAsGA1UECxMESEVQTDEVMBMGA1UEAxMM
RmxvaGljIEVyd2FuMIIBuDCCASwGByqGSM44BAEwggEfAoGBAP1/U4EddRIpUt9K
nC7s5Of2EbdSPO9EAMMeP4C2USZpRV1AIlH7WT2NWPq/xfW6MPbLm1Vs14E7gB00
b/JmYLdrmVClpJ+f6AR7ECLCT7up1/63xhv4O1fnxqimFQ8E+4P208UewwI1VBNa
FpEy9nXzrith1yrv8iIDGZ3RSAHHAhUAl2BQjxUjC8yykrmCouuEC/BYHPUCgYEA
9+GghdabPd7LvKtcNrhXuXmUr7v6OuqC+VdMCz0HgmdRWVeOutRZT+ZxBxCBgLRJ
FnEj6EwoFhO3zwkyjMim4TwWeotUfI0o4KOuHiuzpnWRbqN/C/ohNWLx+2J6ASQ7
zKTxvqhRkImog9/hWuWfBpKLZl6Ae1UlZAFMO/7PSSoDgYUAAoGBANqDnYpy1RSK
2P4MlH6Se7VwjsSz0Fu3/jKsQyEM7GM+DMhHfSjlygBv+bGNXKnhvTl4Av9lOido
S7FErU54REsZ+6c9qIyyJHRuRdD2yHWgCjgiHh+wynguAwmZepleJWr+6e/X8bBI
Vm6n512x/FYdGLfFTa14728y6DU1kFv5o4IBEjCCAQ4wCQYDVR0TBAIwADAsBglg
hkgBhvhCAQ0EHxYdT3BlblNTTCBHZW5lcmF0ZWQgQ2VydGlmaWNhdGUwHQYDVR0O
BBYEFOybRZrpIhV4v/eizUAFFGeyeTELMIGzBgNVHSMEgaswgaiAFPpwWkBOlgyf
X77JTUm7KPyHtGeZoYGEpIGBMH8xCzAJBgNVBAYTAlVTMQswCQYDVQQIDAJOWTER
MA8GA1UEBwwITmV3IFlvcmsxFTATBgNVBAoMDEV4YW1wbGUsIExMQzEYMBYGA1UE
AwwPRXhhbXBsZSBDb21wYW55MR8wHQYJKoZIhvcNAQkBFhB0ZXN0QGV4YW1wbGUu
Y29tggkAvnv4F8pKPj4wDQYJKoZIhvcNAQEEBQADgYEAJ1698w1EvjlxZiUKN6Im
gJDtU6SDajYjZo65dROe5xF7AhNdDF9iHGZ5rIPIm03Ttz1H/75U+5EbfFV7j8Kj
6sG82j7c1Ex1ggOBZlp4wbi2YzePSdFkjmhhvNgCi+ZNSvcihstE6UmQ8LSs78x9
Sog+wQ2YcKFwWylx70KuYBA=
-----END CERTIFICATE-----
