Certificate:
    Data:
        Version: 3 (0x2)
        Serial Number: 3 (0x3)
        Signature Algorithm: md5WithRSAEncryption
        Issuer: C=US, ST=NY, L=New York, O=Example, LLC, CN=Example Company/emailAddress=test@example.com
        Validity
            Not Before: Jan 21 16:37:59 2016 GMT
            Not After : Jan 20 16:37:59 2017 GMT
        Subject: C=BE, ST=Li\xC5\xA0ge, O=Dept. Informatique(serveurs), OU=HEPL, CN=Flohic Erwan
        Subject Public Key Info:
            Public Key Algorithm: dsaEncryption
            DSA Public Key:
                pub: 
                    00:f0:92:ed:22:5a:be:2b:a6:5a:d9:32:4e:f9:52:
                    06:43:d6:e2:02:60:88:a9:ca:7f:7e:e7:83:ea:68:
                    f3:50:4c:6a:76:6f:5f:89:0a:5f:35:5f:bd:cb:bb:
                    da:66:8b:4b:bc:b3:38:5d:a4:74:ca:43:4e:79:a7:
                    7f:f8:53:44:7c:c2:bb:ed:a1:78:e0:da:43:fe:2c:
                    3a:ba:35:db:77:04:f8:bd:8a:de:56:7a:0f:3d:a2:
                    ce:78:7b:4c:3b:c7:6c:24:2c:5c:15:32:20:f9:e1:
                    3a:01:b3:95:92:01:9d:24:ef:6b:0b:15:b5:04:5f:
                    8f:b2:d2:64:50:2f:78:f3:8b
                P:   
                    00:fd:7f:53:81:1d:75:12:29:52:df:4a:9c:2e:ec:
                    e4:e7:f6:11:b7:52:3c:ef:44:00:c3:1e:3f:80:b6:
                    51:26:69:45:5d:40:22:51:fb:59:3d:8d:58:fa:bf:
                    c5:f5:ba:30:f6:cb:9b:55:6c:d7:81:3b:80:1d:34:
                    6f:f2:66:60:b7:6b:99:50:a5:a4:9f:9f:e8:04:7b:
                    10:22:c2:4f:bb:a9:d7:fe:b7:c6:1b:f8:3b:57:e7:
                    c6:a8:a6:15:0f:04:fb:83:f6:d3:c5:1e:c3:02:35:
                    54:13:5a:16:91:32:f6:75:f3:ae:2b:61:d7:2a:ef:
                    f2:22:03:19:9d:d1:48:01:c7
                Q:   
                    00:97:60:50:8f:15:23:0b:cc:b2:92:b9:82:a2:eb:
                    84:0b:f0:58:1c:f5
                G:   
                    00:f7:e1:a0:85:d6:9b:3d:de:cb:bc:ab:5c:36:b8:
                    57:b9:79:94:af:bb:fa:3a:ea:82:f9:57:4c:0b:3d:
                    07:82:67:51:59:57:8e:ba:d4:59:4f:e6:71:07:10:
                    81:80:b4:49:16:71:23:e8:4c:28:16:13:b7:cf:09:
                    32:8c:c8:a6:e1:3c:16:7a:8b:54:7c:8d:28:e0:a3:
                    ae:1e:2b:b3:a6:75:91:6e:a3:7f:0b:fa:21:35:62:
                    f1:fb:62:7a:01:24:3b:cc:a4:f1:be:a8:51:90:89:
                    a8:83:df:e1:5a:e5:9f:06:92:8b:66:5e:80:7b:55:
                    25:64:01:4c:3b:fe:cf:49:2a
        X509v3 extensions:
            X509v3 Basic Constraints: 
                CA:FALSE
            Netscape Comment: 
                OpenSSL Generated Certificate
            X509v3 Subject Key Identifier: 
                31:D0:2A:CA:4A:83:1C:C1:8A:0E:7C:E0:7E:86:8A:20:61:71:DA:B1
            X509v3 Authority Key Identifier: 
                keyid:FA:70:5A:40:4E:96:0C:9F:5F:BE:C9:4D:49:BB:28:FC:87:B4:67:99
                DirName:/C=US/ST=NY/L=New York/O=Example, LLC/CN=Example Company/emailAddress=test@example.com
                serial:BE:7B:F8:17:CA:4A:3E:3E

    Signature Algorithm: md5WithRSAEncryption
        b0:0a:9e:83:30:95:47:3e:e8:9d:d4:cf:eb:85:7b:b8:47:2f:
        8f:be:3e:bd:0f:ba:12:32:c3:70:52:c9:2f:f8:ce:5f:cf:cc:
        64:b0:92:16:bc:da:45:20:3a:90:9a:8a:f5:bb:e1:af:1b:07:
        c8:03:81:98:f9:de:df:9e:6e:97:9a:2e:20:b8:6f:9a:3b:57:
        18:89:69:4d:f7:02:f1:04:ac:c5:e3:54:06:06:1e:b1:4b:62:
        71:85:53:53:53:fa:11:40:62:78:d3:65:79:fd:6d:ba:77:d9:
        2d:6f:6e:1d:a1:5c:7b:2b:1c:77:e6:9f:11:bd:cf:c7:c6:21:
        f4:77
-----BEGIN CERTIFICATE-----
MIIEjjCCA/egAwIBAgIBAzANBgkqhkiG9w0BAQQFADB/MQswCQYDVQQGEwJVUzEL
MAkGA1UECAwCTlkxETAPBgNVBAcMCE5ldyBZb3JrMRUwEwYDVQQKDAxFeGFtcGxl
LCBMTEMxGDAWBgNVBAMMD0V4YW1wbGUgQ29tcGFueTEfMB0GCSqGSIb3DQEJARYQ
dGVzdEBleGFtcGxlLmNvbTAeFw0xNjAxMjExNjM3NTlaFw0xNzAxMjAxNjM3NTla
MGsxCzAJBgNVBAYTAkJFMQ8wDQYDVQQIDAZMacWgZ2UxJTAjBgNVBAoTHERlcHQu
IEluZm9ybWF0aXF1ZShzZXJ2ZXVycykxDTALBgNVBAsTBEhFUEwxFTATBgNVBAMT
DEZsb2hpYyBFcndhbjCCAbgwggEsBgcqhkjOOAQBMIIBHwKBgQD9f1OBHXUSKVLf
Spwu7OTn9hG3UjzvRADDHj+AtlEmaUVdQCJR+1k9jVj6v8X1ujD2y5tVbNeBO4Ad
NG/yZmC3a5lQpaSfn+gEexAiwk+7qdf+t8Yb+DtX58aophUPBPuD9tPFHsMCNVQT
WhaRMvZ1864rYdcq7/IiAxmd0UgBxwIVAJdgUI8VIwvMspK5gqLrhAvwWBz1AoGB
APfhoIXWmz3ey7yrXDa4V7l5lK+7+jrqgvlXTAs9B4JnUVlXjrrUWU/mcQcQgYC0
SRZxI+hMKBYTt88JMozIpuE8FnqLVHyNKOCjrh4rs6Z1kW6jfwv6ITVi8ftiegEk
O8yk8b6oUZCJqIPf4VrlnwaSi2ZegHtVJWQBTDv+z0kqA4GFAAKBgQDwku0iWr4r
plrZMk75UgZD1uICYIipyn9+54PqaPNQTGp2b1+JCl81X73Lu9pmi0u8szhdpHTK
Q055p3/4U0R8wrvtoXjg2kP+LDq6Ndt3BPi9it5Weg89os54e0w7x2wkLFwVMiD5
4ToBs5WSAZ0k72sLFbUEX4+y0mRQL3jzi6OCARIwggEOMAkGA1UdEwQCMAAwLAYJ
YIZIAYb4QgENBB8WHU9wZW5TU0wgR2VuZXJhdGVkIENlcnRpZmljYXRlMB0GA1Ud
DgQWBBQx0CrKSoMcwYoOfOB+hoogYXHasTCBswYDVR0jBIGrMIGogBT6cFpATpYM
n1++yU1Juyj8h7RnmaGBhKSBgTB/MQswCQYDVQQGEwJVUzELMAkGA1UECAwCTlkx
ETAPBgNVBAcMCE5ldyBZb3JrMRUwEwYDVQQKDAxFeGFtcGxlLCBMTEMxGDAWBgNV
BAMMD0V4YW1wbGUgQ29tcGFueTEfMB0GCSqGSIb3DQEJARYQdGVzdEBleGFtcGxl
LmNvbYIJAL57+BfKSj4+MA0GCSqGSIb3DQEBBAUAA4GBALAKnoMwlUc+6J3Uz+uF
e7hHL4++Pr0PuhIyw3BSyS/4zl/PzGSwkha82kUgOpCaivW74a8bB8gDgZj53t+e
bpeaLiC4b5o7VxiJaU33AvEErMXjVAYGHrFLYnGFU1NT+hFAYnjTZXn9bbp32S1v
bh2hXHsrHHfmnxG9z8fGIfR3
-----END CERTIFICATE-----
